; Function Attrs: nounwind uwtable
define range(i32 0, 2) i32 @mz_zip_reader_extract_file_to_callback(ptr noundef captures(address_is_null) %0, ptr noundef captures(address_is_null) %1, ptr noundef captures(address_is_null) %2, ptr noundef %3, i32 noundef %4) local_unnamed_addr #8 {
  %6 = alloca i32, align 4
  call void @llvm.lifetime.start.p0(i64 4, ptr nonnull %6) #34
  %7 = call i32 @mz_zip_reader_locate_file_v2(ptr noundef %0, ptr noundef %1, ptr noundef null, i32 noundef %4, ptr noundef nonnull %6)
  %.not = icmp eq i32 %7, 0
  br i1 %.not, label %11, label %8

8:                                                ; preds = %5
  %9 = load i32, ptr %6, align 4
  %10 = call i32 @mz_zip_reader_extract_to_callback(ptr noundef %0, i32 noundef %9, ptr noundef %2, ptr noundef %3, i32 noundef %4)
  br label %11

11:                                               ; preds = %5, %8
  %.0 = phi i32 [ %10, %8 ], [ 0, %5 ]
  call void @llvm.lifetime.end.p0(i64 4, ptr nonnull %6) #34
  ret i32 %.0
}